target datalayout = "e-m:e-p270:32:32-p271:32:32-p272:64:64-i64:64-i128:128-f80:128-n8:16:32:64-S128"
target triple = "x86_64-unknown-linux-gnu"

%"class.testing::MatcherDescriberInterface" = type { ptr }
%"struct.testing::internal::SharedPayloadBase" = type { %"struct.std::atomic" }
%"struct.std::atomic" = type { %"struct.std::__atomic_base" }
%"struct.std::__atomic_base" = type { i32 }
%"class.testing::internal::MatcherBase.377" = type { %"class.testing::MatcherDescriberInterface", ptr, %"union.testing::internal::MatcherBase<const absl::Span<const absl::container_internal::(anonymous namespace)::Int128> &>::Buffer" }
%"union.testing::internal::MatcherBase<const absl::Span<const absl::container_internal::(anonymous namespace)::Int128> &>::Buffer" = type { ptr }
%"class.std::unique_ptr.382" = type { %"struct.std::__uniq_ptr_data.383" }
%"struct.std::__uniq_ptr_data.383" = type { %"class.std::__uniq_ptr_impl.384" }
%"class.std::__uniq_ptr_impl.384" = type { %"class.std::tuple.385" }
%"class.std::tuple.385" = type { %"struct.std::_Tuple_impl.386" }
%"struct.std::_Tuple_impl.386" = type { %"struct.std::_Head_base.389" }
%"struct.std::_Head_base.389" = type { ptr }
%"struct.testing::internal::SharedPayload.381" = type { %"struct.testing::internal::SharedPayloadBase", %"class.std::unique_ptr.382" }

; Function Attrs: mustprogress nounwind uwtable
define internal noundef nonnull align 8 dereferenceable(8) ptr @_ZNSt10_Head_baseILm0EPKN7testing16MatcherInterfaceIRKN4absl4SpanIKNS2_18container_internal12_GLOBAL__N_16Int128EEEEELb0EE7_M_headERKSE_(ptr noundef nonnull align 8 dereferenceable(8) %__b) #7 align 2 {
entry:
  %__b.addr = alloca ptr, align 8
  store ptr %__b, ptr %__b.addr, align 8
  %0 = load ptr, ptr %__b.addr, align 8
  %_M_head_impl = getelementptr inbounds %"struct.std::_Head_base.389", ptr %0, i32 0, i32 0
  ret ptr %_M_head_impl
}

; Function Attrs: mustprogress nounwind uwtable
define internal noundef nonnull align 8 dereferenceable(8) ptr @_ZNSt11_Tuple_implILm0EJPKN7testing16MatcherInterfaceIRKN4absl4SpanIKNS2_18container_internal12_GLOBAL__N_16Int128EEEEESt14default_deleteISC_EEE7_M_headERKSG_(ptr noundef nonnull align 8 dereferenceable(8) %__t) #7 align 2 {
entry:
  %__t.addr = alloca ptr, align 8
  store ptr %__t, ptr %__t.addr, align 8
  %0 = load ptr, ptr %__t.addr, align 8
  %call = call noundef nonnull align 8 dereferenceable(8) ptr @_ZNSt10_Head_baseILm0EPKN7testing16MatcherInterfaceIRKN4absl4SpanIKNS2_18container_internal12_GLOBAL__N_16Int128EEEEELb0EE7_M_headERKSE_(ptr noundef nonnull align 8 dereferenceable(8) %0) #3
  ret ptr %call
}

; Function Attrs: mustprogress nounwind uwtable
define internal noundef nonnull align 8 dereferenceable(8) ptr @_ZSt12__get_helperILm0EPKN7testing16MatcherInterfaceIRKN4absl4SpanIKNS2_18container_internal12_GLOBAL__N_16Int128EEEEEJSt14default_deleteISC_EEERKT0_RKSt11_Tuple_implIXT_EJSG_DpT1_EE(ptr noundef nonnull align 8 dereferenceable(8) %__t) #7 {
entry:
  %__t.addr = alloca ptr, align 8
  store ptr %__t, ptr %__t.addr, align 8
  %0 = load ptr, ptr %__t.addr, align 8
  %call = call noundef nonnull align 8 dereferenceable(8) ptr @_ZNSt11_Tuple_implILm0EJPKN7testing16MatcherInterfaceIRKN4absl4SpanIKNS2_18container_internal12_GLOBAL__N_16Int128EEEEESt14default_deleteISC_EEE7_M_headERKSG_(ptr noundef nonnull align 8 dereferenceable(8) %0) #3
  ret ptr %call
}

; Function Attrs: mustprogress nounwind uwtable
define internal noundef nonnull align 8 dereferenceable(8) ptr @_ZSt3getILm0EJPKN7testing16MatcherInterfaceIRKN4absl4SpanIKNS2_18container_internal12_GLOBAL__N_16Int128EEEEESt14default_deleteISC_EEERKNSt13tuple_elementIXT_ESt5tupleIJDpT0_EEE4typeERKSK_(ptr noundef nonnull align 8 dereferenceable(8) %__t) #7 {
entry:
  %__t.addr = alloca ptr, align 8
  store ptr %__t, ptr %__t.addr, align 8
  %0 = load ptr, ptr %__t.addr, align 8
  %call = call noundef nonnull align 8 dereferenceable(8) ptr @_ZSt12__get_helperILm0EPKN7testing16MatcherInterfaceIRKN4absl4SpanIKNS2_18container_internal12_GLOBAL__N_16Int128EEEEEJSt14default_deleteISC_EEERKT0_RKSt11_Tuple_implIXT_EJSG_DpT1_EE(ptr noundef nonnull align 8 dereferenceable(8) %0) #3
  ret ptr %call
}

; Function Attrs: mustprogress nounwind uwtable
define internal noundef ptr @_ZNKSt15__uniq_ptr_implIKN7testing16MatcherInterfaceIRKN4absl4SpanIKNS2_18container_internal12_GLOBAL__N_16Int128EEEEESt14default_deleteISC_EE6_M_ptrEv(ptr noundef nonnull align 8 dereferenceable(8) %this) #7 align 2 {
entry:
  %this.addr = alloca ptr, align 8
  store ptr %this, ptr %this.addr, align 8
  %this1 = load ptr, ptr %this.addr, align 8
  %_M_t = getelementptr inbounds %"class.std::__uniq_ptr_impl.384", ptr %this1, i32 0, i32 0
  %call = call noundef nonnull align 8 dereferenceable(8) ptr @_ZSt3getILm0EJPKN7testing16MatcherInterfaceIRKN4absl4SpanIKNS2_18container_internal12_GLOBAL__N_16Int128EEEEESt14default_deleteISC_EEERKNSt13tuple_elementIXT_ESt5tupleIJDpT0_EEE4typeERKSK_(ptr noundef nonnull align 8 dereferenceable(8) %_M_t) #3
  %0 = load ptr, ptr %call, align 8
  ret ptr %0
}

; Function Attrs: mustprogress nounwind uwtable
define internal noundef ptr @_ZNKSt10unique_ptrIKN7testing16MatcherInterfaceIRKN4absl4SpanIKNS2_18container_internal12_GLOBAL__N_16Int128EEEEESt14default_deleteISC_EE3getEv(ptr noundef nonnull align 8 dereferenceable(8) %this) #7 align 2 {
entry:
  %this.addr = alloca ptr, align 8
  store ptr %this, ptr %this.addr, align 8
  %this1 = load ptr, ptr %this.addr, align 8
  %_M_t = getelementptr inbounds %"class.std::unique_ptr.382", ptr %this1, i32 0, i32 0
  %call = call noundef ptr @_ZNKSt15__uniq_ptr_implIKN7testing16MatcherInterfaceIRKN4absl4SpanIKNS2_18container_internal12_GLOBAL__N_16Int128EEEEESt14default_deleteISC_EE6_M_ptrEv(ptr noundef nonnull align 8 dereferenceable(8) %_M_t) #3
  ret ptr %call
}

; Function Attrs: mustprogress nounwind uwtable
define internal noundef nonnull align 8 dereferenceable(8) ptr @_ZNKSt10unique_ptrIKN7testing16MatcherInterfaceIRKN4absl4SpanIKNS2_18container_internal12_GLOBAL__N_16Int128EEEEESt14default_deleteISC_EEdeEv(ptr noundef nonnull align 8 dereferenceable(8) %this) #7 align 2 {
entry:
  %this.addr = alloca ptr, align 8
  store ptr %this, ptr %this.addr, align 8
  %this1 = load ptr, ptr %this.addr, align 8
  br label %do.body

do.body:                                          ; preds = %entry
  br label %do.cond

do.cond:                                          ; preds = %do.body
  br label %do.end

do.end:                                           ; preds = %do.cond
  %call = call noundef ptr @_ZNKSt10unique_ptrIKN7testing16MatcherInterfaceIRKN4absl4SpanIKNS2_18container_internal12_GLOBAL__N_16Int128EEEEESt14default_deleteISC_EE3getEv(ptr noundef nonnull align 8 dereferenceable(8) %this1) #3
  ret ptr %call
}

; Function Attrs: mustprogress nounwind uwtable
define internal noundef nonnull align 8 dereferenceable(8) ptr @_ZN7testing8internal11MatcherBaseIRKN4absl4SpanIKNS2_18container_internal12_GLOBAL__N_16Int128EEEE11ValuePolicyIPKNS_16MatcherInterfaceISA_EELb1EE3GetERKSB_(ptr noundef nonnull align 8 dereferenceable(24) %m) #7 align 2 {
entry:
  %m.addr = alloca ptr, align 8
  store ptr %m, ptr %m.addr, align 8
  %0 = load ptr, ptr %m.addr, align 8
  %buffer_ = getelementptr inbounds %"class.testing::internal::MatcherBase.377", ptr %0, i32 0, i32 2
  %1 = load ptr, ptr %buffer_, align 8
  %value = getelementptr inbounds %"struct.testing::internal::SharedPayload.381", ptr %1, i32 0, i32 1
  %call = call noundef nonnull align 8 dereferenceable(8) ptr @_ZNKSt10unique_ptrIKN7testing16MatcherInterfaceIRKN4absl4SpanIKNS2_18container_internal12_GLOBAL__N_16Int128EEEEESt14default_deleteISC_EEdeEv(ptr noundef nonnull align 8 dereferenceable(8) %value) #3
  ret ptr %call
}

; Function Attrs: mustprogress uwtable
define internal void @_ZN7testing8internal11MatcherBaseIRKN4absl4SpanIKNS2_18container_internal12_GLOBAL__N_16Int128EEEE12DescribeImplINSB_11ValuePolicyIPKNS_16MatcherInterfaceISA_EELb1EEEEEvRKSB_PSob(ptr noundef nonnull align 8 dereferenceable(24) %m, ptr noundef %os, i1 noundef zeroext %negation) #4 align 2 {
entry:
  %m.addr = alloca ptr, align 8
  %os.addr = alloca ptr, align 8
  %negation.addr = alloca i8, align 1
  store ptr %m, ptr %m.addr, align 8
  store ptr %os, ptr %os.addr, align 8
  %frombool = zext i1 %negation to i8
  store i8 %frombool, ptr %negation.addr, align 1
  %0 = load i8, ptr %negation.addr, align 1
  %tobool = trunc i8 %0 to i1
  br i1 %tobool, label %if.then, label %if.else

if.then:                                          ; preds = %entry
  %1 = load ptr, ptr %m.addr, align 8
  %call = call noundef nonnull align 8 dereferenceable(8) ptr @_ZN7testing8internal11MatcherBaseIRKN4absl4SpanIKNS2_18container_internal12_GLOBAL__N_16Int128EEEE11ValuePolicyIPKNS_16MatcherInterfaceISA_EELb1EE3GetERKSB_(ptr noundef nonnull align 8 dereferenceable(24) %1)
  %2 = load ptr, ptr %os.addr, align 8
  %vtable = load ptr, ptr %call, align 8
  %vfn = getelementptr inbounds ptr, ptr %vtable, i64 3
  %3 = load ptr, ptr %vfn, align 8
  call void %3(ptr noundef nonnull align 8 dereferenceable(8) %call, ptr noundef %2)
  br label %if.end

if.else:                                          ; preds = %entry
  %4 = load ptr, ptr %m.addr, align 8
  %call1 = call noundef nonnull align 8 dereferenceable(8) ptr @_ZN7testing8internal11MatcherBaseIRKN4absl4SpanIKNS2_18container_internal12_GLOBAL__N_16Int128EEEE11ValuePolicyIPKNS_16MatcherInterfaceISA_EELb1EE3GetERKSB_(ptr noundef nonnull align 8 dereferenceable(24) %4)
  %5 = load ptr, ptr %os.addr, align 8
  %vtable2 = load ptr, ptr %call1, align 8
  %vfn3 = getelementptr inbounds ptr, ptr %vtable2, i64 2
  %6 = load ptr, ptr %vfn3, align 8
  call void %6(ptr noundef nonnull align 8 dereferenceable(8) %call1, ptr noundef %5)
  br label %if.end

if.end:                                           ; preds = %if.else, %if.then
  ret void
}